; Function Attrs: nounwind sspstrong uwtable
define dso_local noundef i64 @rb_obj_reveal(i64 noundef returned %0, i64 noundef %1) local_unnamed_addr #2 {
  %3 = icmp eq i64 %0, 0
  %4 = and i64 %0, 7
  %5 = icmp ne i64 %4, 0
  %6 = or i1 %3, %5
  br i1 %6, label %RBASIC_SET_CLASS.exit, label %7

7:                                                ; preds = %2
  %8 = inttoptr i64 %0 to ptr
  %9 = getelementptr inbounds nuw i8, ptr %8, i64 8
  store i64 %1, ptr %9, align 8, !tbaa !7
  %10 = icmp eq i64 %1, 0
  %11 = and i64 %1, 7
  %12 = icmp ne i64 %11, 0
  %13 = or i1 %10, %12
  br i1 %13, label %RBASIC_SET_CLASS.exit, label %14

14:                                               ; preds = %7
  tail call void @rb_gc_writebarrier(i64 noundef %0, i64 noundef %1) #23
  br label %RBASIC_SET_CLASS.exit

RBASIC_SET_CLASS.exit:                            ; preds = %14, %7, %2
  ret i64 %0
}